target datalayout = "e-m:e-p270:32:32-p271:32:32-p272:64:64-i64:64-i128:128-f80:128-n8:16:32:64-S128"
target triple = "x86_64-pc-linux-gnu"

; Function Attrs: nounwind uwtable
define i32 @X509_NAME_print_ex(ptr noundef %0, ptr noundef %1, i32 noundef %2, i64 noundef %3) #0 {
  %5 = alloca i32, align 4
  %6 = alloca ptr, align 8
  %7 = alloca ptr, align 8
  %8 = alloca i32, align 4
  %9 = alloca i64, align 8
  store ptr %0, ptr %6, align 8, !tbaa !3
  store ptr %1, ptr %7, align 8, !tbaa !8
  store i32 %2, ptr %8, align 4, !tbaa !10
  store i64 %3, ptr %9, align 8, !tbaa !12
  %10 = load i64, ptr %9, align 8, !tbaa !12
  %11 = icmp eq i64 %10, 0
  br i1 %11, label %12, label %17

12:                                               ; preds = %4
  %13 = load ptr, ptr %6, align 8, !tbaa !3
  %14 = load ptr, ptr %7, align 8, !tbaa !8
  %15 = load i32, ptr %8, align 4, !tbaa !10
  %16 = call i32 @X509_NAME_print(ptr noundef %13, ptr noundef %14, i32 noundef %15)
  store i32 %16, ptr %5, align 4
  br label %23

17:                                               ; preds = %4
  %18 = load ptr, ptr %6, align 8, !tbaa !3
  %19 = load ptr, ptr %7, align 8, !tbaa !8
  %20 = load i32, ptr %8, align 4, !tbaa !10
  %21 = load i64, ptr %9, align 8, !tbaa !12
  %22 = call i32 @do_name_ex(ptr noundef @send_bio_chars, ptr noundef %18, ptr noundef %19, i32 noundef %20, i64 noundef %21)
  store i32 %22, ptr %5, align 4
  br label %23

23:                                               ; preds = %17, %12
  %24 = load i32, ptr %5, align 4
  ret i32 %24
}