; Function Attrs: nounwind uwtable
define i32 @X509_NAME_print_ex(ptr noundef %0, ptr noundef %1, i32 noundef %2, i64 noundef %3) local_unnamed_addr #0 {
  %5 = icmp eq i64 %3, 0
  br i1 %5, label %6, label %8

6:                                                ; preds = %4
  %7 = tail call i32 @X509_NAME_print(ptr noundef %0, ptr noundef %1, i32 noundef %2) #8
  br label %10

8:                                                ; preds = %4
  %9 = tail call fastcc i32 @do_name_ex(ptr noundef nonnull @send_bio_chars, ptr noundef %0, ptr noundef %1, i32 noundef %2, i64 noundef %3)
  br label %10

10:                                               ; preds = %8, %6
  %.0 = phi i32 [ %7, %6 ], [ %9, %8 ]
  ret i32 %.0
}